target datalayout = "e-m:e-p270:32:32-p271:32:32-p272:64:64-i64:64-i128:128-f80:128-n8:16:32:64-S128"
target triple = "x86_64-unknown-linux-gnu"

%union.anon.0 = type { %struct.QTailQLink }
%struct.QTailQLink = type { ptr, ptr }
%struct.NotifierList = type { %struct.anon }
%struct.anon = type { ptr }
%struct.QemuInputHandlerState = type { ptr, ptr, i32, i32, ptr, %union.anon }
%union.anon = type { %struct.QTailQLink }
%struct.QemuInputHandler = type { ptr, i32, ptr, ptr }

@handlers = internal global %union.anon.0 { %struct.QTailQLink { ptr null, ptr @handlers } }, align 8
@mouse_mode_notifiers = internal global %struct.NotifierList zeroinitializer, align 8
@.str = private unnamed_addr constant [19 x i8] c"../qemu/ui/input.c\00", align 1
@__func__.qemu_mouse_set = private unnamed_addr constant [15 x i8] c"qemu_mouse_set\00", align 1
@.str.4 = private unnamed_addr constant [30 x i8] c"Mouse at index '%d' not found\00", align 1
@.str.5 = private unnamed_addr constant [33 x i8] c"Input device '%s' is not a mouse\00", align 1

; Function Attrs: nounwind sspstrong uwtable
define dso_local void @qemu_input_handler_activate(ptr noundef %s) #0 {
entry:
  %s.addr = alloca ptr, align 8
  store ptr %s, ptr %s.addr, align 8
  br label %do.body

do.body:                                          ; preds = %entry
  %0 = load ptr, ptr %s.addr, align 8
  %node = getelementptr inbounds %struct.QemuInputHandlerState, ptr %0, i32 0, i32 5
  %1 = load ptr, ptr %node, align 8
  %cmp = icmp ne ptr %1, null
  br i1 %cmp, label %if.then, label %if.else

if.then:                                          ; preds = %do.body
  %2 = load ptr, ptr %s.addr, align 8
  %node1 = getelementptr inbounds %struct.QemuInputHandlerState, ptr %2, i32 0, i32 5
  %tql_prev = getelementptr inbounds %struct.QTailQLink, ptr %node1, i32 0, i32 1
  %3 = load ptr, ptr %tql_prev, align 8
  %4 = load ptr, ptr %s.addr, align 8
  %node2 = getelementptr inbounds %struct.QemuInputHandlerState, ptr %4, i32 0, i32 5
  %5 = load ptr, ptr %node2, align 8
  %node3 = getelementptr inbounds %struct.QemuInputHandlerState, ptr %5, i32 0, i32 5
  %tql_prev4 = getelementptr inbounds %struct.QTailQLink, ptr %node3, i32 0, i32 1
  store ptr %3, ptr %tql_prev4, align 8
  br label %if.end

if.else:                                          ; preds = %do.body
  %6 = load ptr, ptr %s.addr, align 8
  %node5 = getelementptr inbounds %struct.QemuInputHandlerState, ptr %6, i32 0, i32 5
  %tql_prev6 = getelementptr inbounds %struct.QTailQLink, ptr %node5, i32 0, i32 1
  %7 = load ptr, ptr %tql_prev6, align 8
  %8 = getelementptr inbounds %struct.QTailQLink, ptr @handlers, i32 0, i32 1
  store ptr %7, ptr %8, align 8
  br label %if.end

if.end:                                           ; preds = %if.else, %if.then
  %9 = load ptr, ptr %s.addr, align 8
  %node7 = getelementptr inbounds %struct.QemuInputHandlerState, ptr %9, i32 0, i32 5
  %10 = load ptr, ptr %node7, align 8
  %11 = load ptr, ptr %s.addr, align 8
  %node8 = getelementptr inbounds %struct.QemuInputHandlerState, ptr %11, i32 0, i32 5
  %tql_prev9 = getelementptr inbounds %struct.QTailQLink, ptr %node8, i32 0, i32 1
  %12 = load ptr, ptr %tql_prev9, align 8
  %tql_next = getelementptr inbounds %struct.QTailQLink, ptr %12, i32 0, i32 0
  store ptr %10, ptr %tql_next, align 8
  %13 = load ptr, ptr %s.addr, align 8
  %node10 = getelementptr inbounds %struct.QemuInputHandlerState, ptr %13, i32 0, i32 5
  %tql_prev11 = getelementptr inbounds %struct.QTailQLink, ptr %node10, i32 0, i32 1
  store ptr null, ptr %tql_prev11, align 8
  %14 = load ptr, ptr %s.addr, align 8
  %node12 = getelementptr inbounds %struct.QemuInputHandlerState, ptr %14, i32 0, i32 5
  %tql_next13 = getelementptr inbounds %struct.QTailQLink, ptr %node12, i32 0, i32 0
  store ptr null, ptr %tql_next13, align 8
  %15 = load ptr, ptr %s.addr, align 8
  %node14 = getelementptr inbounds %struct.QemuInputHandlerState, ptr %15, i32 0, i32 5
  store ptr null, ptr %node14, align 8
  br label %do.end

do.end:                                           ; preds = %if.end
  br label %do.body15

do.body15:                                        ; preds = %do.end
  %16 = load ptr, ptr @handlers, align 8
  %17 = load ptr, ptr %s.addr, align 8
  %node16 = getelementptr inbounds %struct.QemuInputHandlerState, ptr %17, i32 0, i32 5
  store ptr %16, ptr %node16, align 8
  %cmp17 = icmp ne ptr %16, null
  br i1 %cmp17, label %if.then18, label %if.else22

if.then18:                                        ; preds = %do.body15
  %18 = load ptr, ptr %s.addr, align 8
  %node19 = getelementptr inbounds %struct.QemuInputHandlerState, ptr %18, i32 0, i32 5
  %19 = load ptr, ptr @handlers, align 8
  %node20 = getelementptr inbounds %struct.QemuInputHandlerState, ptr %19, i32 0, i32 5
  %tql_prev21 = getelementptr inbounds %struct.QTailQLink, ptr %node20, i32 0, i32 1
  store ptr %node19, ptr %tql_prev21, align 8
  br label %if.end24

if.else22:                                        ; preds = %do.body15
  %20 = load ptr, ptr %s.addr, align 8
  %node23 = getelementptr inbounds %struct.QemuInputHandlerState, ptr %20, i32 0, i32 5
  %21 = getelementptr inbounds %struct.QTailQLink, ptr @handlers, i32 0, i32 1
  store ptr %node23, ptr %21, align 8
  br label %if.end24

if.end24:                                         ; preds = %if.else22, %if.then18
  %22 = load ptr, ptr %s.addr, align 8
  store ptr %22, ptr @handlers, align 8
  %23 = load ptr, ptr %s.addr, align 8
  %node25 = getelementptr inbounds %struct.QemuInputHandlerState, ptr %23, i32 0, i32 5
  %tql_prev26 = getelementptr inbounds %struct.QTailQLink, ptr %node25, i32 0, i32 1
  store ptr @handlers, ptr %tql_prev26, align 8
  br label %do.end27

do.end27:                                         ; preds = %if.end24
  call void @notifier_list_notify(ptr noundef @mouse_mode_notifiers, ptr noundef null)
  ret void
}

; Function Attrs: nounwind sspstrong uwtable
define dso_local zeroext i1 @qemu_mouse_set(i32 noundef %index, ptr noundef %errp) #0 {
entry:
  %retval = alloca i1, align 1
  %index.addr = alloca i32, align 4
  %errp.addr = alloca ptr, align 8
  %s = alloca ptr, align 8
  store i32 %index, ptr %index.addr, align 4
  store ptr %errp, ptr %errp.addr, align 8
  %0 = load ptr, ptr @handlers, align 8
  store ptr %0, ptr %s, align 8
  br label %for.cond

for.cond:                                         ; preds = %for.inc, %entry
  %1 = load ptr, ptr %s, align 8
  %tobool = icmp ne ptr %1, null
  br i1 %tobool, label %for.body, label %for.end

for.body:                                         ; preds = %for.cond
  %2 = load ptr, ptr %s, align 8
  %id = getelementptr inbounds %struct.QemuInputHandlerState, ptr %2, i32 0, i32 2
  %3 = load i32, ptr %id, align 8
  %4 = load i32, ptr %index.addr, align 4
  %cmp = icmp eq i32 %3, %4
  br i1 %cmp, label %if.then, label %if.end

if.then:                                          ; preds = %for.body
  br label %for.end

if.end:                                           ; preds = %for.body
  br label %for.inc

for.inc:                                          ; preds = %if.end
  %5 = load ptr, ptr %s, align 8
  %node = getelementptr inbounds %struct.QemuInputHandlerState, ptr %5, i32 0, i32 5
  %6 = load ptr, ptr %node, align 8
  store ptr %6, ptr %s, align 8
  br label %for.cond, !llvm.loop !14

for.end:                                          ; preds = %if.then, %for.cond
  %7 = load ptr, ptr %s, align 8
  %tobool1 = icmp ne ptr %7, null
  br i1 %tobool1, label %if.end3, label %if.then2

if.then2:                                         ; preds = %for.end
  %8 = load ptr, ptr %errp.addr, align 8
  %9 = load i32, ptr %index.addr, align 4
  call void (ptr, ptr, i32, ptr, ptr, ...) @error_setg_internal(ptr noundef %8, ptr noundef @.str, i32 noundef 633, ptr noundef @__func__.qemu_mouse_set, ptr noundef @.str.4, i32 noundef %9)
  store i1 false, ptr %retval, align 1
  br label %return

if.end3:                                          ; preds = %for.end
  %10 = load ptr, ptr %s, align 8
  %handler = getelementptr inbounds %struct.QemuInputHandlerState, ptr %10, i32 0, i32 1
  %11 = load ptr, ptr %handler, align 8
  %mask = getelementptr inbounds %struct.QemuInputHandler, ptr %11, i32 0, i32 1
  %12 = load i32, ptr %mask, align 8
  %and = and i32 %12, 12
  %tobool4 = icmp ne i32 %and, 0
  br i1 %tobool4, label %if.end7, label %if.then5

if.then5:                                         ; preds = %if.end3
  %13 = load ptr, ptr %errp.addr, align 8
  %14 = load ptr, ptr %s, align 8
  %handler6 = getelementptr inbounds %struct.QemuInputHandlerState, ptr %14, i32 0, i32 1
  %15 = load ptr, ptr %handler6, align 8
  %name = getelementptr inbounds %struct.QemuInputHandler, ptr %15, i32 0, i32 0
  %16 = load ptr, ptr %name, align 8
  call void (ptr, ptr, i32, ptr, ptr, ...) @error_setg_internal(ptr noundef %13, ptr noundef @.str, i32 noundef 640, ptr noundef @__func__.qemu_mouse_set, ptr noundef @.str.5, ptr noundef %16)
  store i1 false, ptr %retval, align 1
  br label %return

if.end7:                                          ; preds = %if.end3
  %17 = load ptr, ptr %s, align 8
  call void @qemu_input_handler_activate(ptr noundef %17)
  call void @notifier_list_notify(ptr noundef @mouse_mode_notifiers, ptr noundef null)
  store i1 true, ptr %retval, align 1
  br label %return

return:                                           ; preds = %if.end7, %if.then5, %if.then2
  %18 = load i1, ptr %retval, align 1
  ret i1 %18
}