; Function Attrs: nounwind sspstrong uwtable
define dso_local noundef zeroext i1 @qemu_mouse_set(i32 noundef %index, ptr noundef %errp) local_unnamed_addr #0 {
entry:
  %s.010 = load ptr, ptr @handlers, align 8
  %tobool.not11 = icmp eq ptr %s.010, null
  br i1 %tobool.not11, label %if.then2, label %for.body

for.body:                                         ; preds = %entry, %for.inc
  %s.012 = phi ptr [ %s.0, %for.inc ], [ %s.010, %entry ]
  %id = getelementptr inbounds nuw i8, ptr %s.012, i64 16
  %0 = load i32, ptr %id, align 8
  %cmp = icmp eq i32 %0, %index
  br i1 %cmp, label %if.end3, label %for.inc

for.inc:                                          ; preds = %for.body
  %node = getelementptr inbounds nuw i8, ptr %s.012, i64 32
  %s.0 = load ptr, ptr %node, align 8
  %tobool.not = icmp eq ptr %s.0, null
  br i1 %tobool.not, label %if.then2, label %for.body, !llvm.loop !14

if.then2:                                         ; preds = %for.inc, %entry
  tail call void (ptr, ptr, i32, ptr, ptr, ...) @error_setg_internal(ptr noundef %errp, ptr noundef nonnull @.str, i32 noundef 633, ptr noundef nonnull @__func__.qemu_mouse_set, ptr noundef nonnull @.str.4, i32 noundef %index) #12
  br label %return

if.end3:                                          ; preds = %for.body
  %handler = getelementptr inbounds nuw i8, ptr %s.012, i64 8
  %1 = load ptr, ptr %handler, align 8
  %mask = getelementptr inbounds nuw i8, ptr %1, i64 8
  %2 = load i32, ptr %mask, align 8
  %and = and i32 %2, 12
  %tobool4.not = icmp eq i32 %and, 0
  br i1 %tobool4.not, label %if.then5, label %if.end7

if.then5:                                         ; preds = %if.end3
  %3 = load ptr, ptr %1, align 8
  tail call void (ptr, ptr, i32, ptr, ptr, ...) @error_setg_internal(ptr noundef %errp, ptr noundef nonnull @.str, i32 noundef 640, ptr noundef nonnull @__func__.qemu_mouse_set, ptr noundef nonnull @.str.5, ptr noundef %3) #12
  br label %return

if.end7:                                          ; preds = %if.end3
  %node.i = getelementptr inbounds nuw i8, ptr %s.012, i64 32
  %4 = load ptr, ptr %node.i, align 8
  %cmp.not.i = icmp eq ptr %4, null
  %tql_prev6.i = getelementptr inbounds nuw i8, ptr %s.012, i64 40
  %5 = load ptr, ptr %tql_prev6.i, align 8
  br i1 %cmp.not.i, label %if.else.i, label %if.then.i

if.then.i:                                        ; preds = %if.end7
  %tql_prev4.i = getelementptr inbounds nuw i8, ptr %4, i64 40
  store ptr %5, ptr %tql_prev4.i, align 8
  %.pre.i = load ptr, ptr %node.i, align 8
  br label %if.end.i

if.else.i:                                        ; preds = %if.end7
  store ptr %5, ptr getelementptr inbounds nuw (i8, ptr @handlers, i64 8), align 8
  br label %if.end.i

if.end.i:                                         ; preds = %if.else.i, %if.then.i
  %6 = phi ptr [ null, %if.else.i ], [ %.pre.i, %if.then.i ]
  store ptr %6, ptr %5, align 8
  %7 = load ptr, ptr @handlers, align 8
  store ptr %7, ptr %node.i, align 8
  %cmp17.not.i = icmp eq ptr %7, null
  br i1 %cmp17.not.i, label %if.else22.i, label %if.then18.i

if.then18.i:                                      ; preds = %if.end.i
  %tql_prev21.i = getelementptr inbounds nuw i8, ptr %7, i64 40
  store ptr %node.i, ptr %tql_prev21.i, align 8
  br label %qemu_input_handler_activate.exit

if.else22.i:                                      ; preds = %if.end.i
  store ptr %node.i, ptr getelementptr inbounds nuw (i8, ptr @handlers, i64 8), align 8
  br label %qemu_input_handler_activate.exit

qemu_input_handler_activate.exit:                 ; preds = %if.then18.i, %if.else22.i
  store ptr %s.012, ptr @handlers, align 8
  store ptr @handlers, ptr %tql_prev6.i, align 8
  tail call void @notifier_list_notify(ptr noundef nonnull @mouse_mode_notifiers, ptr noundef null) #12
  tail call void @notifier_list_notify(ptr noundef nonnull @mouse_mode_notifiers, ptr noundef null) #12
  br label %return

return:                                           ; preds = %qemu_input_handler_activate.exit, %if.then5, %if.then2
  %retval.0 = phi i1 [ true, %qemu_input_handler_activate.exit ], [ false, %if.then5 ], [ false, %if.then2 ]
  ret i1 %retval.0
}